; Function Attrs: mustprogress nounwind uwtable
define dso_local void @_ZN4node7tracing5Agent25InitializeWritersOnThreadEv(ptr noundef nonnull align 8 dereferenceable(1312) %this) local_unnamed_addr #3 align 2 {
entry:
  %head = alloca ptr, align 8
  %initialize_writer_mutex_ = getelementptr inbounds i8, ptr %this, i64 984
  tail call void @uv_mutex_lock(ptr noundef nonnull %initialize_writer_mutex_) #14
  %_M_node_count.i.i = getelementptr inbounds i8, ptr %this, i64 1240
  %0 = load i64, ptr %_M_node_count.i.i, align 8
  %cmp.i.i1 = icmp eq i64 %0, 0
  br i1 %cmp.i.i1, label %while.end, label %while.body.lr.ph

while.body.lr.ph:                                 ; preds = %entry
  %to_be_initialized_ = getelementptr inbounds i8, ptr %this, i64 1200
  %_M_left.i.i = getelementptr inbounds i8, ptr %this, i64 1224
  %tracing_loop_ = getelementptr inbounds i8, ptr %this, i64 8
  br label %while.body

while.body:                                       ; preds = %while.body.lr.ph, %while.body
  %1 = load ptr, ptr %_M_left.i.i, align 8
  %_M_storage.i.i = getelementptr inbounds i8, ptr %1, i64 32
  %2 = load ptr, ptr %_M_storage.i.i, align 8
  store ptr %2, ptr %head, align 8
  %vtable = load ptr, ptr %2, align 8
  %vfn = getelementptr inbounds i8, ptr %vtable, i64 32
  %3 = load ptr, ptr %vfn, align 8
  call void %3(ptr noundef nonnull align 8 dereferenceable(8) %2, ptr noundef nonnull %tracing_loop_) #14
  %call.i = call noundef i64 @_ZNSt8_Rb_treeIPN4node7tracing16AsyncTraceWriterES3_St9_IdentityIS3_ESt4lessIS3_ESaIS3_EE5eraseERKS3_(ptr noundef nonnull align 8 dereferenceable(48) %to_be_initialized_, ptr noundef nonnull align 8 dereferenceable(8) %head)
  %4 = load i64, ptr %_M_node_count.i.i, align 8
  %cmp.i.i = icmp eq i64 %4, 0
  br i1 %cmp.i.i, label %while.end, label %while.body, !llvm.loop !5

while.end:                                        ; preds = %while.body, %entry
  %initialize_writer_condvar_ = getelementptr inbounds i8, ptr %this, i64 1024
  call void @uv_cond_broadcast(ptr noundef nonnull %initialize_writer_condvar_) #14
  call void @uv_mutex_unlock(ptr noundef nonnull %initialize_writer_mutex_) #14
  ret void
}